target datalayout = "e-m:e-p270:32:32-p271:32:32-p272:64:64-i64:64-i128:128-f80:128-n8:16:32:64-S128"
target triple = "x86_64-pc-linux-gnu"

%struct._zend_ast = type { i16, i16, i32, [1 x ptr] }
%struct._zend_ast_list = type { i16, i16, i32, i32, [1 x ptr] }

; Function Attrs: nounwind uwtable
define void @zend_ast_apply(ptr noundef %0, ptr noundef %1, ptr noundef %2) #0 {
  %4 = alloca ptr, align 8
  %5 = alloca ptr, align 8
  %6 = alloca ptr, align 8
  %7 = alloca ptr, align 8
  %8 = alloca ptr, align 8
  %9 = alloca ptr, align 8
  %10 = alloca ptr, align 8
  %11 = alloca i32, align 4
  %12 = alloca i32, align 4
  %13 = alloca i32, align 4
  store ptr %0, ptr %7, align 8
  store ptr %1, ptr %8, align 8
  store ptr %2, ptr %9, align 8
  %14 = load ptr, ptr %7, align 8
  store ptr %14, ptr %4, align 8
  %15 = load ptr, ptr %4, align 8
  %16 = load i16, ptr %15, align 8
  %17 = zext i16 %16 to i32
  %18 = ashr i32 %17, 7
  %19 = and i32 %18, 1
  %20 = icmp ne i32 %19, 0
  br i1 %20, label %21, label %42

21:                                               ; preds = %3
  %22 = load ptr, ptr %7, align 8
  store ptr %22, ptr %6, align 8
  %23 = load ptr, ptr %6, align 8
  store ptr %23, ptr %10, align 8
  store i32 0, ptr %11, align 4
  br label %24

24:                                               ; preds = %38, %21
  %25 = load i32, ptr %11, align 4
  %26 = load ptr, ptr %10, align 8
  %27 = getelementptr inbounds %struct._zend_ast_list, ptr %26, i32 0, i32 3
  %28 = load i32, ptr %27, align 8
  %29 = icmp ult i32 %25, %28
  br i1 %29, label %30, label %41

30:                                               ; preds = %24
  %31 = load ptr, ptr %8, align 8
  %32 = load ptr, ptr %10, align 8
  %33 = getelementptr inbounds %struct._zend_ast_list, ptr %32, i32 0, i32 4
  %34 = load i32, ptr %11, align 4
  %35 = zext i32 %34 to i64
  %36 = getelementptr inbounds [1 x ptr], ptr %33, i64 0, i64 %35
  %37 = load ptr, ptr %9, align 8
  call void %31(ptr noundef %36, ptr noundef %37)
  br label %38

38:                                               ; preds = %30
  %39 = load i32, ptr %11, align 4
  %40 = add i32 %39, 1
  store i32 %40, ptr %11, align 4
  br label %24

41:                                               ; preds = %24
  br label %64

42:                                               ; preds = %3
  %43 = load ptr, ptr %7, align 8
  store ptr %43, ptr %5, align 8
  %44 = load ptr, ptr %5, align 8
  %45 = load i16, ptr %44, align 8
  %46 = zext i16 %45 to i32
  %47 = ashr i32 %46, 8
  store i32 %47, ptr %13, align 4
  store i32 0, ptr %12, align 4
  br label %48

48:                                               ; preds = %60, %42
  %49 = load i32, ptr %12, align 4
  %50 = load i32, ptr %13, align 4
  %51 = icmp ult i32 %49, %50
  br i1 %51, label %52, label %63

52:                                               ; preds = %48
  %53 = load ptr, ptr %8, align 8
  %54 = load ptr, ptr %7, align 8
  %55 = getelementptr inbounds %struct._zend_ast, ptr %54, i32 0, i32 3
  %56 = load i32, ptr %12, align 4
  %57 = zext i32 %56 to i64
  %58 = getelementptr inbounds [1 x ptr], ptr %55, i64 0, i64 %57
  %59 = load ptr, ptr %9, align 8
  call void %53(ptr noundef %58, ptr noundef %59)
  br label %60

60:                                               ; preds = %52
  %61 = load i32, ptr %12, align 4
  %62 = add i32 %61, 1
  store i32 %62, ptr %12, align 4
  br label %48

63:                                               ; preds = %48
  br label %64

64:                                               ; preds = %63, %41
  ret void
}