; Function Attrs: nounwind uwtable
define void @zend_ast_apply(ptr noundef %0, ptr nocapture noundef readonly %1, ptr noundef %2) local_unnamed_addr #0 {
  %4 = load i16, ptr %0, align 8
  %5 = zext i16 %4 to i32
  %6 = and i32 %5, 128
  %.not = icmp eq i32 %6, 0
  br i1 %.not, label %15, label %.preheader

.preheader:                                       ; preds = %3
  %7 = getelementptr inbounds i8, ptr %0, i64 8
  %8 = load i32, ptr %7, align 8
  %.not24 = icmp eq i32 %8, 0
  br i1 %.not24, label %.loopexit, label %.lr.ph

.lr.ph:                                           ; preds = %.preheader
  %9 = getelementptr inbounds i8, ptr %0, i64 16
  br label %10

10:                                               ; preds = %.lr.ph, %10
  %indvars.iv = phi i64 [ 0, %.lr.ph ], [ %indvars.iv.next, %10 ]
  %11 = getelementptr inbounds [1 x ptr], ptr %9, i64 0, i64 %indvars.iv
  tail call void %1(ptr noundef nonnull %11, ptr noundef %2) #14
  %indvars.iv.next = add nuw nsw i64 %indvars.iv, 1
  %12 = load i32, ptr %7, align 8
  %13 = zext i32 %12 to i64
  %14 = icmp ult i64 %indvars.iv.next, %13
  br i1 %14, label %10, label %.loopexit

15:                                               ; preds = %3
  %.not25 = icmp ult i16 %4, 256
  br i1 %.not25, label %.loopexit, label %.lr.ph23

.lr.ph23:                                         ; preds = %15
  %16 = lshr i32 %5, 8
  %17 = getelementptr inbounds i8, ptr %0, i64 8
  %wide.trip.count = zext nneg i32 %16 to i64
  br label %18

18:                                               ; preds = %.lr.ph23, %18
  %indvars.iv28 = phi i64 [ 0, %.lr.ph23 ], [ %indvars.iv.next29, %18 ]
  %19 = getelementptr inbounds [1 x ptr], ptr %17, i64 0, i64 %indvars.iv28
  tail call void %1(ptr noundef nonnull %19, ptr noundef %2) #14
  %indvars.iv.next29 = add nuw nsw i64 %indvars.iv28, 1
  %exitcond.not = icmp eq i64 %indvars.iv.next29, %wide.trip.count
  br i1 %exitcond.not, label %.loopexit, label %18

.loopexit:                                        ; preds = %10, %18, %.preheader, %15
  ret void
}